target datalayout = "e-m:e-p270:32:32-p271:32:32-p272:64:64-i64:64-i128:128-f80:128-n8:16:32:64-S128"
target triple = "x86_64-pc-linux-gnu"

%struct.EXRContext = type { ptr, ptr, ptr, %struct.ExrDSPContext, i32, i32, [4 x i32], ptr, i32, i32, i32, i32, i32, i32, i32, i32, i32, i32, %struct.EXRTileAttribute, i32, i32, i32, i32, %struct.GetByteContext, ptr, i32, ptr, i32, i32, i32, ptr, ptr, i32, ptr, i32, float, [65536 x i16], %struct.Float2HalfTables, %struct.Half2FloatTables }
%struct.ExrDSPContext = type { ptr, ptr }
%struct.EXRTileAttribute = type { i32, i32, i32, i32 }
%struct.GetByteContext = type { ptr, ptr, ptr }
%struct.Float2HalfTables = type { [512 x i16], [512 x i8] }
%struct.Half2FloatTables = type { [3072 x i32], [64 x i32], [64 x i16] }
%struct.EXRThreadData = type { ptr, i32, ptr, i32, ptr, ptr, ptr, i32, ptr, i32, ptr, i32, ptr, i32, [3 x [64 x float]], i32, i32, i32, i32, ptr, ptr, %struct.VLC }
%struct.VLC = type { i32, ptr, i32, i32 }

; Function Attrs: nounwind uwtable
define internal i32 @zip_uncompress(ptr noundef %0, ptr noundef %1, i32 noundef %2, i32 noundef %3, ptr noundef %4) #1 {
  %6 = alloca i32, align 4
  %7 = alloca ptr, align 8
  %8 = alloca ptr, align 8
  %9 = alloca i32, align 4
  %10 = alloca i32, align 4
  %11 = alloca ptr, align 8
  %12 = alloca i64, align 8
  %13 = alloca i32, align 4
  store ptr %0, ptr %7, align 8, !tbaa !29
  store ptr %1, ptr %8, align 8, !tbaa !92
  store i32 %2, ptr %9, align 4, !tbaa !46
  store i32 %3, ptr %10, align 4, !tbaa !46
  store ptr %4, ptr %11, align 8, !tbaa !105
  call void @llvm.lifetime.start.p0(i64 8, ptr %12) #13
  %14 = load i32, ptr %10, align 4, !tbaa !46
  %15 = sext i32 %14 to i64
  store i64 %15, ptr %12, align 8, !tbaa !88
  %16 = load ptr, ptr %11, align 8, !tbaa !105
  %17 = getelementptr inbounds nuw %struct.EXRThreadData, ptr %16, i32 0, i32 2
  %18 = load ptr, ptr %17, align 8, !tbaa !157
  %19 = load ptr, ptr %8, align 8, !tbaa !92
  %20 = load i32, ptr %9, align 4, !tbaa !46
  %21 = sext i32 %20 to i64
  %22 = call i32 @uncompress(ptr noundef %18, ptr noundef %12, ptr noundef %19, i64 noundef %21)
  %23 = icmp ne i32 %22, 0
  br i1 %23, label %29, label %24

24:                                               ; preds = %5
  %25 = load i64, ptr %12, align 8, !tbaa !88
  %26 = load i32, ptr %10, align 4, !tbaa !46
  %27 = sext i32 %26 to i64
  %28 = icmp ne i64 %25, %27
  br i1 %28, label %29, label %30

29:                                               ; preds = %24, %5
  store i32 -1094995529, ptr %6, align 4
  store i32 1, ptr %13, align 4
  br label %52

30:                                               ; preds = %24
  %31 = load ptr, ptr %7, align 8, !tbaa !29
  %32 = getelementptr inbounds nuw %struct.EXRContext, ptr %31, i32 0, i32 3
  %33 = getelementptr inbounds nuw %struct.ExrDSPContext, ptr %32, i32 0, i32 1
  %34 = load ptr, ptr %33, align 8, !tbaa !180
  %35 = load ptr, ptr %11, align 8, !tbaa !105
  %36 = getelementptr inbounds nuw %struct.EXRThreadData, ptr %35, i32 0, i32 2
  %37 = load ptr, ptr %36, align 8, !tbaa !157
  %38 = load i32, ptr %10, align 4, !tbaa !46
  %39 = sext i32 %38 to i64
  call void %34(ptr noundef %37, i64 noundef %39)
  %40 = load ptr, ptr %7, align 8, !tbaa !29
  %41 = getelementptr inbounds nuw %struct.EXRContext, ptr %40, i32 0, i32 3
  %42 = getelementptr inbounds nuw %struct.ExrDSPContext, ptr %41, i32 0, i32 0
  %43 = load ptr, ptr %42, align 8, !tbaa !181
  %44 = load ptr, ptr %11, align 8, !tbaa !105
  %45 = getelementptr inbounds nuw %struct.EXRThreadData, ptr %44, i32 0, i32 0
  %46 = load ptr, ptr %45, align 8, !tbaa !158
  %47 = load ptr, ptr %11, align 8, !tbaa !105
  %48 = getelementptr inbounds nuw %struct.EXRThreadData, ptr %47, i32 0, i32 2
  %49 = load ptr, ptr %48, align 8, !tbaa !157
  %50 = load i32, ptr %10, align 4, !tbaa !46
  %51 = sext i32 %50 to i64
  call void %43(ptr noundef %46, ptr noundef %49, i64 noundef %51)
  store i32 0, ptr %6, align 4
  store i32 1, ptr %13, align 4
  br label %52

52:                                               ; preds = %30, %29
  call void @llvm.lifetime.end.p0(i64 8, ptr %12) #13
  %53 = load i32, ptr %6, align 4
  ret i32 %53
}