; Function Attrs: nounwind uwtable
define internal fastcc range(i32 -1094995529, 1) i32 @zip_uncompress(ptr noundef readonly captures(none) %0, ptr noundef %1, i32 noundef range(i32 1, 0) %2, i32 noundef %3, ptr noundef readonly captures(none) %4) unnamed_addr #1 {
  %6 = alloca i64, align 8
  call void @llvm.lifetime.start.p0(i64 8, ptr nonnull %6) #14
  %7 = sext i32 %3 to i64
  store i64 %7, ptr %6, align 8, !tbaa !152
  %8 = getelementptr inbounds nuw i8, ptr %4, i64 16
  %9 = load ptr, ptr %8, align 8, !tbaa !135
  %10 = sext i32 %2 to i64
  %11 = call i32 @uncompress(ptr noundef %9, ptr noundef nonnull %6, ptr noundef %1, i64 noundef %10) #14
  %.not = icmp eq i32 %11, 0
  %12 = load i64, ptr %6, align 8
  %.not13 = icmp eq i64 %12, %7
  %or.cond = select i1 %.not, i1 %.not13, i1 false
  br i1 %or.cond, label %13, label %21

13:                                               ; preds = %5
  %14 = getelementptr inbounds nuw i8, ptr %0, i64 24
  %15 = getelementptr inbounds nuw i8, ptr %0, i64 32
  %16 = load ptr, ptr %15, align 8, !tbaa !153
  %17 = load ptr, ptr %8, align 8, !tbaa !135
  call void %16(ptr noundef %17, i64 noundef %7) #14
  %18 = load ptr, ptr %14, align 8, !tbaa !154
  %19 = load ptr, ptr %4, align 8, !tbaa !136
  %20 = load ptr, ptr %8, align 8, !tbaa !135
  call void %18(ptr noundef %19, ptr noundef %20, i64 noundef %7) #14
  br label %21

21:                                               ; preds = %5, %13
  %.0 = phi i32 [ 0, %13 ], [ -1094995529, %5 ]
  call void @llvm.lifetime.end.p0(i64 8, ptr nonnull %6) #14
  ret i32 %.0
}